; ModuleID = '30/1088.c'
source_filename = "30/1088.c"
target datalayout = "e-m:e-p270:32:32-p271:32:32-p272:64:64-i64:64-f80:128-n8:16:32:64-S128"
target triple = "x86_64-pc-linux-gnu"

@.str = private unnamed_addr constant [3 x i8] c"%d\00", align 1

; Function Attrs: noinline nounwind uwtable
define dso_local i32 @main() #0 {
  %1 = alloca i32, align 4
  %2 = alloca i32, align 4
  %3 = alloca i32, align 4
  %4 = alloca i32, align 4
  %5 = alloca i32, align 4
  store i32 0, i32* %1, align 4
  store i32 0, i32* %5, align 4
  %6 = call i32 (i8*, ...) @__isoc99_scanf(i8* getelementptr inbounds ([3 x i8], [3 x i8]* @.str, i64 0, i64 0), i32* %2)
  store i32 1, i32* %3, align 4
  br label %7

7:                                                ; preds = %55, %0
  %8 = load i32, i32* %3, align 4
  %9 = load i32, i32* %2, align 4
  %10 = icmp sle i32 %8, %9
  br i1 %10, label %11, label %58

11:                                               ; preds = %7
  %12 = load i32, i32* %3, align 4
  %13 = srem i32 %12, 7
  %14 = icmp eq i32 %13, 0
  br i1 %14, label %15, label %17

15:                                               ; preds = %11
  %16 = load i32, i32* %5, align 4
  store i32 %16, i32* %5, align 4
  br label %54

17:                                               ; preds = %11
  %18 = load i32, i32* %3, align 4
  %19 = icmp slt i32 %18, 10
  br i1 %19, label %20, label %32

20:                                               ; preds = %17
  %21 = load i32, i32* %3, align 4
  %22 = icmp ne i32 %21, 7
  br i1 %22, label %23, label %29

23:                                               ; preds = %20
  %24 = load i32, i32* %5, align 4
  %25 = load i32, i32* %3, align 4
  %26 = load i32, i32* %3, align 4
  %27 = mul nsw i32 %25, %26
  %28 = add nsw i32 %24, %27
  store i32 %28, i32* %5, align 4
  br label %31

29:                                               ; preds = %20
  %30 = load i32, i32* %5, align 4
  store i32 %30, i32* %5, align 4
  br label %31

31:                                               ; preds = %29, %23
  br label %53

32:                                               ; preds = %17
  %33 = load i32, i32* %3, align 4
  %34 = sdiv i32 %33, 10
  %35 = icmp eq i32 %34, 7
  br i1 %35, label %36, label %38

36:                                               ; preds = %32
  %37 = load i32, i32* %5, align 4
  store i32 %37, i32* %5, align 4
  br label %52

38:                                               ; preds = %32
  %39 = load i32, i32* %3, align 4
  %40 = srem i32 %39, 10
  store i32 %40, i32* %4, align 4
  %41 = load i32, i32* %4, align 4
  %42 = icmp eq i32 %41, 7
  br i1 %42, label %43, label %45

43:                                               ; preds = %38
  %44 = load i32, i32* %5, align 4
  store i32 %44, i32* %5, align 4
  br label %51

45:                                               ; preds = %38
  %46 = load i32, i32* %5, align 4
  %47 = load i32, i32* %3, align 4
  %48 = load i32, i32* %3, align 4
  %49 = mul nsw i32 %47, %48
  %50 = add nsw i32 %46, %49
  store i32 %50, i32* %5, align 4
  br label %51

51:                                               ; preds = %45, %43
  br label %52

52:                                               ; preds = %51, %36
  br label %53

53:                                               ; preds = %52, %31
  br label %54

54:                                               ; preds = %53, %15
  br label %55

55:                                               ; preds = %54
  %56 = load i32, i32* %3, align 4
  %57 = add nsw i32 %56, 1
  store i32 %57, i32* %3, align 4
  br label %7

58:                                               ; preds = %7
  %59 = load i32, i32* %5, align 4
  %60 = call i32 (i8*, ...) @printf(i8* getelementptr inbounds ([3 x i8], [3 x i8]* @.str, i64 0, i64 0), i32 %59)
  ret i32 0
}

declare dso_local i32 @__isoc99_scanf(i8*, ...) #1

declare dso_local i32 @printf(i8*, ...) #1


!llvm.module.flags = !{!0}
!llvm.ident = !{!1}

!0 = !{i32 1, !"wchar_size", i32 4}
!1 = !{!"clang version 10.0.0-4ubuntu1 "}
